; Function Attrs: mustprogress nounwind uwtable
define hidden noundef ptr @_ZN14JNIHandleBlock14allocate_blockEP10JavaThreadN17AllocFailStrategy13AllocFailEnumE(ptr noundef %0, i32 noundef %1) local_unnamed_addr #1 align 2 {
  %.not = icmp eq ptr %0, null
  br i1 %.not, label %9, label %3

3:                                                ; preds = %2
  %4 = getelementptr inbounds i8, ptr %0, i64 1080
  %5 = load ptr, ptr %4, align 8
  %.not23 = icmp eq ptr %5, null
  br i1 %.not23, label %9, label %6

6:                                                ; preds = %3
  %7 = getelementptr inbounds i8, ptr %5, i64 264
  %8 = load ptr, ptr %7, align 8
  store ptr %8, ptr %4, align 8
  br label %18

9:                                                ; preds = %3, %2
  %10 = icmp eq i32 %1, 1
  br i1 %10, label %11, label %14

11:                                               ; preds = %9
  %12 = tail call noundef ptr @_Z12AllocateHeapm8MEMFLAGSN17AllocFailStrategy13AllocFailEnumE(i64 noundef 296, i8 noundef zeroext 9, i32 noundef 1) #11
  %13 = icmp eq ptr %12, null
  br i1 %13, label %.thread, label %16

14:                                               ; preds = %9
  %15 = tail call noundef ptr @_Z12AllocateHeapm8MEMFLAGSN17AllocFailStrategy13AllocFailEnumE(i64 noundef 296, i8 noundef zeroext 9, i32 noundef 0) #11
  br label %16

16:                                               ; preds = %11, %14
  %.sink = phi ptr [ %15, %14 ], [ %12, %11 ]
  tail call void @llvm.memset.p0.i64(ptr noundef nonnull align 8 dereferenceable(296) %.sink, i8 0, i64 296, i1 false)
  %17 = tail call noundef i32 asm sideeffect "lock xaddl $0,($2)", "=r,0,r,~{cc},~{memory},~{dirflag},~{fpsr},~{flags}"(i32 1, ptr nonnull @_ZN14JNIHandleBlock17_blocks_allocatedE) #11, !srcloc !10
  br label %18

18:                                               ; preds = %16, %6
  %.1 = phi ptr [ %5, %6 ], [ %.sink, %16 ]
  %19 = getelementptr inbounds i8, ptr %.1, i64 256
  store i32 0, ptr %19, align 8
  %20 = getelementptr inbounds i8, ptr %.1, i64 264
  store ptr null, ptr %20, align 8
  %21 = getelementptr inbounds i8, ptr %.1, i64 280
  store ptr null, ptr %21, align 8
  br label %.thread

.thread:                                          ; preds = %11, %18
  %.019 = phi ptr [ %.1, %18 ], [ null, %11 ]
  ret ptr %.019
}